; Function Attrs: nounwind uwtable
define noundef i32 @bufferevent_rate_limit_group_decrement_read(ptr noundef %0, i64 noundef %1) local_unnamed_addr #3 {
  %3 = getelementptr inbounds nuw i8, ptr %0, i64 264
  %4 = load ptr, ptr %3, align 8
  %.not = icmp eq ptr %4, null
  br i1 %.not, label %8, label %5

5:                                                ; preds = %2
  %6 = load ptr, ptr getelementptr inbounds nuw (i8, ptr @evthread_lock_fns_, i64 24), align 8
  %7 = tail call i32 %6(i32 noundef 0, ptr noundef nonnull %4) #10
  br label %8

8:                                                ; preds = %5, %2
  %9 = getelementptr inbounds nuw i8, ptr %0, i64 8
  %10 = load i64, ptr %9, align 8
  %11 = sub nsw i64 %10, %1
  store i64 %11, ptr %9, align 8
  %12 = icmp sgt i64 %10, 0
  %13 = icmp slt i64 %11, 1
  %or.cond = select i1 %12, i1 %13, i1 false
  br i1 %or.cond, label %14, label %32

14:                                               ; preds = %8
  %15 = getelementptr inbounds nuw i8, ptr %0, i64 88
  %16 = load i8, ptr %15, align 8
  %17 = and i8 %16, -6
  %18 = or disjoint i8 %17, 1
  store i8 %18, ptr %15, align 8
  %.014.i = load ptr, ptr %0, align 8
  %.not15.i = icmp eq ptr %.014.i, null
  br i1 %.not15.i, label %bev_group_suspend_reading_.exit, label %.lr.ph.i

.lr.ph.i:                                         ; preds = %14, %29
  %.016.i = phi ptr [ %.0.i, %29 ], [ %.014.i, %14 ]
  %19 = getelementptr inbounds nuw i8, ptr %.016.i, i64 448
  %20 = load ptr, ptr %19, align 8
  %21 = icmp ne ptr %20, null
  %22 = load ptr, ptr getelementptr inbounds nuw (i8, ptr @evthread_lock_fns_, i64 24), align 8
  %23 = icmp ne ptr %22, null
  %or.cond.i.i = select i1 %21, i1 %23, i1 false
  br i1 %or.cond.i.i, label %EVLOCK_TRY_LOCK_.exit.i, label %EVLOCK_TRY_LOCK_.exit.thread.i

EVLOCK_TRY_LOCK_.exit.i:                          ; preds = %.lr.ph.i
  %24 = tail call i32 %22(i32 noundef 16, ptr noundef nonnull %20) #10
  %.not.i.not.i = icmp eq i32 %24, 0
  br i1 %.not.i.not.i, label %EVLOCK_TRY_LOCK_.exit.thread.i, label %29

EVLOCK_TRY_LOCK_.exit.thread.i:                   ; preds = %EVLOCK_TRY_LOCK_.exit.i, %.lr.ph.i
  tail call void @bufferevent_suspend_read_(ptr noundef nonnull %.016.i, i16 noundef zeroext 4) #10
  %25 = load ptr, ptr %19, align 8
  %.not11.i = icmp eq ptr %25, null
  br i1 %.not11.i, label %29, label %26

26:                                               ; preds = %EVLOCK_TRY_LOCK_.exit.thread.i
  %27 = load ptr, ptr getelementptr inbounds nuw (i8, ptr @evthread_lock_fns_, i64 32), align 8
  %28 = tail call i32 %27(i32 noundef 0, ptr noundef nonnull %25) #10
  br label %29

29:                                               ; preds = %26, %EVLOCK_TRY_LOCK_.exit.thread.i, %EVLOCK_TRY_LOCK_.exit.i
  %30 = getelementptr inbounds nuw i8, ptr %.016.i, i64 472
  %31 = load ptr, ptr %30, align 8
  %.0.i = load ptr, ptr %31, align 8
  %.not.i = icmp eq ptr %.0.i, null
  br i1 %.not.i, label %bev_group_suspend_reading_.exit, label %.lr.ph.i, !llvm.loop !3

32:                                               ; preds = %8
  %33 = icmp slt i64 %10, 1
  %34 = icmp sgt i64 %11, 0
  %or.cond3 = select i1 %33, i1 %34, i1 false
  br i1 %or.cond3, label %35, label %bev_group_suspend_reading_.exit

35:                                               ; preds = %32
  tail call fastcc void @bev_group_unsuspend_reading_(ptr noundef nonnull %0)
  br label %bev_group_suspend_reading_.exit

bev_group_suspend_reading_.exit:                  ; preds = %29, %14, %35, %32
  %36 = load ptr, ptr %3, align 8
  %.not17 = icmp eq ptr %36, null
  br i1 %.not17, label %40, label %37

37:                                               ; preds = %bev_group_suspend_reading_.exit
  %38 = load ptr, ptr getelementptr inbounds nuw (i8, ptr @evthread_lock_fns_, i64 32), align 8
  %39 = tail call i32 %38(i32 noundef 0, ptr noundef nonnull %36) #10
  br label %40

40:                                               ; preds = %37, %bev_group_suspend_reading_.exit
  ret i32 0
}